(lp0
S'poi'
p1
aS'salary'
p2
aS'bonus'
p3
aS'deferred_income'
p4
aS'total_stock_value'
p5
aS'expenses'
p6
aS'exercised_stock_options'
p7
aS'long_term_incentive'
p8
aS'restricted_stock'
p9
aS'shared_receipt_with_poi'
p10
aS'fraction_sent_to_poi'
p11
a.